target datalayout = "e-m:e-p270:32:32-p271:32:32-p272:64:64-i64:64-i128:128-f80:128-n8:16:32:64-S128"
target triple = "x86_64-pc-linux-gnu"

%struct.quicklist = type { ptr, ptr, i64, i64, i64, [0 x %struct.quicklistBookmark] }
%struct.quicklistBookmark = type { ptr, ptr }

; Function Attrs: nounwind uwtable
define dso_local ptr @_quicklistBookmarkFindByName(ptr noundef %0, ptr noundef %1) #0 {
  %3 = alloca ptr, align 8
  %4 = alloca ptr, align 8
  %5 = alloca ptr, align 8
  %6 = alloca i32, align 4
  %7 = alloca i32, align 4
  store ptr %0, ptr %4, align 8, !tbaa !9
  store ptr %1, ptr %5, align 8, !tbaa !35
  call void @llvm.lifetime.start.p0(i64 4, ptr %6) #10
  store i32 0, ptr %6, align 4, !tbaa !14
  br label %8

8:                                                ; preds = %35, %2
  %9 = load i32, ptr %6, align 4, !tbaa !14
  %10 = load ptr, ptr %4, align 8, !tbaa !9
  %11 = getelementptr inbounds nuw %struct.quicklist, ptr %10, i32 0, i32 4
  %12 = load i64, ptr %11, align 8
  %13 = lshr i64 %12, 32
  %14 = and i64 %13, 15
  %15 = trunc i64 %14 to i32
  %16 = icmp ult i32 %9, %15
  br i1 %16, label %17, label %38

17:                                               ; preds = %8
  %18 = load ptr, ptr %4, align 8, !tbaa !9
  %19 = getelementptr inbounds nuw %struct.quicklist, ptr %18, i32 0, i32 5
  %20 = load i32, ptr %6, align 4, !tbaa !14
  %21 = zext i32 %20 to i64
  %22 = getelementptr inbounds nuw [0 x %struct.quicklistBookmark], ptr %19, i64 0, i64 %21
  %23 = getelementptr inbounds nuw %struct.quicklistBookmark, ptr %22, i32 0, i32 1
  %24 = load ptr, ptr %23, align 8, !tbaa !24
  %25 = load ptr, ptr %5, align 8, !tbaa !35
  %26 = call i32 @strcmp(ptr noundef %24, ptr noundef %25) #14
  %27 = icmp ne i32 %26, 0
  br i1 %27, label %34, label %28

28:                                               ; preds = %17
  %29 = load ptr, ptr %4, align 8, !tbaa !9
  %30 = getelementptr inbounds nuw %struct.quicklist, ptr %29, i32 0, i32 5
  %31 = load i32, ptr %6, align 4, !tbaa !14
  %32 = zext i32 %31 to i64
  %33 = getelementptr inbounds nuw [0 x %struct.quicklistBookmark], ptr %30, i64 0, i64 %32
  store ptr %33, ptr %3, align 8
  store i32 1, ptr %7, align 4
  br label %39

34:                                               ; preds = %17
  br label %35

35:                                               ; preds = %34
  %36 = load i32, ptr %6, align 4, !tbaa !14
  %37 = add i32 %36, 1
  store i32 %37, ptr %6, align 4, !tbaa !14
  br label %8, !llvm.loop !70

38:                                               ; preds = %8
  store ptr null, ptr %3, align 8
  store i32 1, ptr %7, align 4
  br label %39

39:                                               ; preds = %38, %28
  call void @llvm.lifetime.end.p0(i64 4, ptr %6) #10
  %40 = load ptr, ptr %3, align 8
  ret ptr %40
}

; Function Attrs: nounwind uwtable
define dso_local i32 @quicklistBookmarkCreate(ptr noundef %0, ptr noundef %1, ptr noundef %2) #0 {
  %4 = alloca i32, align 4
  %5 = alloca ptr, align 8
  %6 = alloca ptr, align 8
  %7 = alloca ptr, align 8
  %8 = alloca ptr, align 8
  %9 = alloca i32, align 4
  %10 = alloca ptr, align 8
  store ptr %0, ptr %5, align 8, !tbaa !68
  store ptr %1, ptr %6, align 8, !tbaa !35
  store ptr %2, ptr %7, align 8, !tbaa !12
  call void @llvm.lifetime.start.p0(i64 8, ptr %8) #10
  %11 = load ptr, ptr %5, align 8, !tbaa !68
  %12 = load ptr, ptr %11, align 8, !tbaa !9
  store ptr %12, ptr %8, align 8, !tbaa !9
  %13 = load ptr, ptr %8, align 8, !tbaa !9
  %14 = getelementptr inbounds nuw %struct.quicklist, ptr %13, i32 0, i32 4
  %15 = load i64, ptr %14, align 8
  %16 = lshr i64 %15, 32
  %17 = and i64 %16, 15
  %18 = trunc i64 %17 to i32
  %19 = icmp sge i32 %18, 15
  br i1 %19, label %20, label %21

20:                                               ; preds = %3
  store i32 0, ptr %4, align 4
  store i32 1, ptr %9, align 4
  br label %85

21:                                               ; preds = %3
  call void @llvm.lifetime.start.p0(i64 8, ptr %10) #10
  %22 = load ptr, ptr %8, align 8, !tbaa !9
  %23 = load ptr, ptr %6, align 8, !tbaa !35
  %24 = call ptr @_quicklistBookmarkFindByName(ptr noundef %22, ptr noundef %23)
  store ptr %24, ptr %10, align 8, !tbaa !36
  %25 = load ptr, ptr %10, align 8, !tbaa !36
  %26 = icmp ne ptr %25, null
  br i1 %26, label %27, label %31

27:                                               ; preds = %21
  %28 = load ptr, ptr %7, align 8, !tbaa !12
  %29 = load ptr, ptr %10, align 8, !tbaa !36
  %30 = getelementptr inbounds nuw %struct.quicklistBookmark, ptr %29, i32 0, i32 0
  store ptr %28, ptr %30, align 8, !tbaa !38
  store i32 1, ptr %4, align 4
  store i32 1, ptr %9, align 4
  br label %84

31:                                               ; preds = %21
  %32 = load ptr, ptr %8, align 8, !tbaa !9
  %33 = load ptr, ptr %8, align 8, !tbaa !9
  %34 = getelementptr inbounds nuw %struct.quicklist, ptr %33, i32 0, i32 4
  %35 = load i64, ptr %34, align 8
  %36 = lshr i64 %35, 32
  %37 = and i64 %36, 15
  %38 = trunc i64 %37 to i32
  %39 = add nsw i32 %38, 1
  %40 = sext i32 %39 to i64
  %41 = mul i64 %40, 16
  %42 = add i64 40, %41
  %43 = call ptr @zrealloc(ptr noundef %32, i64 noundef %42) #13
  store ptr %43, ptr %8, align 8, !tbaa !9
  %44 = load ptr, ptr %8, align 8, !tbaa !9
  %45 = load ptr, ptr %5, align 8, !tbaa !68
  store ptr %44, ptr %45, align 8, !tbaa !9
  %46 = load ptr, ptr %7, align 8, !tbaa !12
  %47 = load ptr, ptr %8, align 8, !tbaa !9
  %48 = getelementptr inbounds nuw %struct.quicklist, ptr %47, i32 0, i32 5
  %49 = load ptr, ptr %8, align 8, !tbaa !9
  %50 = getelementptr inbounds nuw %struct.quicklist, ptr %49, i32 0, i32 4
  %51 = load i64, ptr %50, align 8
  %52 = lshr i64 %51, 32
  %53 = and i64 %52, 15
  %54 = trunc i64 %53 to i32
  %55 = zext i32 %54 to i64
  %56 = getelementptr inbounds nuw [0 x %struct.quicklistBookmark], ptr %48, i64 0, i64 %55
  %57 = getelementptr inbounds nuw %struct.quicklistBookmark, ptr %56, i32 0, i32 0
  store ptr %46, ptr %57, align 8, !tbaa !38
  %58 = load ptr, ptr %6, align 8, !tbaa !35
  %59 = call noalias ptr @zstrdup(ptr noundef %58)
  %60 = load ptr, ptr %8, align 8, !tbaa !9
  %61 = getelementptr inbounds nuw %struct.quicklist, ptr %60, i32 0, i32 5
  %62 = load ptr, ptr %8, align 8, !tbaa !9
  %63 = getelementptr inbounds nuw %struct.quicklist, ptr %62, i32 0, i32 4
  %64 = load i64, ptr %63, align 8
  %65 = lshr i64 %64, 32
  %66 = and i64 %65, 15
  %67 = trunc i64 %66 to i32
  %68 = zext i32 %67 to i64
  %69 = getelementptr inbounds nuw [0 x %struct.quicklistBookmark], ptr %61, i64 0, i64 %68
  %70 = getelementptr inbounds nuw %struct.quicklistBookmark, ptr %69, i32 0, i32 1
  store ptr %59, ptr %70, align 8, !tbaa !24
  %71 = load ptr, ptr %8, align 8, !tbaa !9
  %72 = getelementptr inbounds nuw %struct.quicklist, ptr %71, i32 0, i32 4
  %73 = load i64, ptr %72, align 8
  %74 = lshr i64 %73, 32
  %75 = and i64 %74, 15
  %76 = trunc i64 %75 to i32
  %77 = add i32 %76, 1
  %78 = zext i32 %77 to i64
  %79 = load i64, ptr %72, align 8
  %80 = and i64 %78, 15
  %81 = shl i64 %80, 32
  %82 = and i64 %79, -64424509441
  %83 = or i64 %82, %81
  store i64 %83, ptr %72, align 8
  store i32 1, ptr %4, align 4
  store i32 1, ptr %9, align 4
  br label %84

84:                                               ; preds = %31, %27
  call void @llvm.lifetime.end.p0(i64 8, ptr %10) #10
  br label %85

85:                                               ; preds = %84, %20
  call void @llvm.lifetime.end.p0(i64 8, ptr %8) #10
  %86 = load i32, ptr %4, align 4
  ret i32 %86
}