; Function Attrs: nounwind uwtable
define dso_local range(i32 0, 2) i32 @quicklistBookmarkCreate(ptr noundef captures(none) %0, ptr noundef %1, ptr noundef %2) local_unnamed_addr #1 {
  %4 = load ptr, ptr %0, align 8, !tbaa !57
  %5 = getelementptr inbounds nuw i8, ptr %4, i64 32
  %6 = load i64, ptr %5, align 8
  %7 = and i64 %6, 64424509440
  %8 = icmp eq i64 %7, 64424509440
  br i1 %8, label %35, label %9

9:                                                ; preds = %3
  %10 = getelementptr inbounds nuw i8, ptr %4, i64 40
  %.not12.i = icmp eq i64 %7, 0
  br i1 %.not12.i, label %.loopexit, label %.lr.ph.preheader.i

.lr.ph.preheader.i:                               ; preds = %9
  %11 = lshr i64 %6, 32
  %wide.trip.count.i = and i64 %11, 15
  br label %.lr.ph.i

12:                                               ; preds = %.lr.ph.i
  %indvars.iv.next.i = add nuw nsw i64 %indvars.iv.i, 1
  %exitcond.not.i = icmp eq i64 %indvars.iv.next.i, %wide.trip.count.i
  br i1 %exitcond.not.i, label %.loopexit, label %.lr.ph.i, !llvm.loop !58

.lr.ph.i:                                         ; preds = %12, %.lr.ph.preheader.i
  %indvars.iv.i = phi i64 [ 0, %.lr.ph.preheader.i ], [ %indvars.iv.next.i, %12 ]
  %13 = getelementptr inbounds nuw [0 x %struct.quicklistBookmark], ptr %10, i64 0, i64 %indvars.iv.i
  %14 = getelementptr inbounds nuw i8, ptr %13, i64 8
  %15 = load ptr, ptr %14, align 8, !tbaa !20
  %16 = tail call i32 @strcmp(ptr noundef nonnull dereferenceable(1) %15, ptr noundef nonnull readonly dereferenceable(1) %1) #26
  %.not.i = icmp eq i32 %16, 0
  br i1 %.not.i, label %_quicklistBookmarkFindByName.exit, label %12

_quicklistBookmarkFindByName.exit:                ; preds = %.lr.ph.i
  store ptr %2, ptr %13, align 8, !tbaa !31
  br label %35

.loopexit:                                        ; preds = %12, %9
  %17 = lshr i64 %6, 28
  %18 = and i64 %17, 240
  %19 = add nuw nsw i64 %18, 56
  %20 = tail call ptr @zrealloc(ptr noundef nonnull %4, i64 noundef %19) #25
  store ptr %20, ptr %0, align 8, !tbaa !57
  %21 = getelementptr inbounds nuw i8, ptr %20, i64 40
  %22 = getelementptr inbounds nuw i8, ptr %20, i64 32
  %23 = load i64, ptr %22, align 8
  %24 = lshr i64 %23, 32
  %25 = and i64 %24, 15
  %26 = getelementptr inbounds nuw [0 x %struct.quicklistBookmark], ptr %21, i64 0, i64 %25
  store ptr %2, ptr %26, align 8, !tbaa !31
  %27 = tail call noalias ptr @zstrdup(ptr noundef %1) #23
  %28 = load i64, ptr %22, align 8
  %29 = lshr i64 %28, 28
  %.idx = and i64 %29, 240
  %.offs = or disjoint i64 %.idx, 8
  %30 = getelementptr inbounds nuw i8, ptr %21, i64 %.offs
  store ptr %27, ptr %30, align 8, !tbaa !20
  %31 = add i64 %28, 4294967296
  %32 = and i64 %31, 64424509440
  %33 = and i64 %28, -64424509441
  %34 = or disjoint i64 %32, %33
  store i64 %34, ptr %22, align 8
  br label %35

35:                                               ; preds = %_quicklistBookmarkFindByName.exit, %.loopexit, %3
  %.0 = phi i32 [ 0, %3 ], [ 1, %.loopexit ], [ 1, %_quicklistBookmarkFindByName.exit ]
  ret i32 %.0
}